target datalayout = "e-m:e-p270:32:32-p271:32:32-p272:64:64-i64:64-i128:128-f80:128-n8:16:32:64-S128"
target triple = "x86_64-pc-linux-gnu"

%struct.nstime_t = type { i64, i32 }
%struct._packet_info = type { ptr, ptr, i32, i32, %struct.nstime_t, %struct.nstime_t, %struct.nstime_t, i8, ptr, ptr, ptr, ptr, %struct._address, %struct._address, %struct._address, %struct._address, %struct._address, %struct._address, i32, ptr, i8, [3 x i8], %struct.anon, i32, i32, i32, i32, ptr, i8, ptr, ptr, i16, i16, i32, i32, i16, i32, i32, ptr, ptr, ptr, i8, i8, i16, i16, i16, i32, i16, i16, ptr, ptr, ptr, ptr, ptr, i32, i32 }
%struct._address = type { i32, i32, ptr, ptr }
%struct.anon = type { i8, [3 x i8] }

@hf_afp_path_type = internal global i32 0, align 4
@hf_afp_path_len = internal global i32 0, align 4
@hf_afp_path_unicode_len = internal global i32 0, align 4
@hf_afp_path_unicode_hint = internal global i32 0, align 4
@hf_afp_path_name = internal global i32 0, align 4
@ett_afp_path_name = internal global i32 0, align 4
@Vol = internal global i32 0, align 4
@Did = internal global i32 0, align 4
@.str.1062 = private unnamed_addr constant [16 x i8] c": Vol=%u Did=%u\00", align 1
@.str.1063 = private unnamed_addr constant [9 x i8] c" Name=%s\00", align 1
@.str.1064 = private unnamed_addr constant [13 x i8] c"Unknown type\00", align 1

; Function Attrs: null_pointer_is_valid sspstrong uwtable
define internal ptr @get_name(ptr noundef %0, ptr noundef %1, i32 noundef %2, i32 noundef %3) #1 {
  %5 = alloca ptr, align 8
  %6 = alloca ptr, align 8
  %7 = alloca i32, align 4
  %8 = alloca i32, align 4
  %9 = alloca i32, align 4
  %10 = alloca ptr, align 8
  store ptr %0, ptr %5, align 8
  store ptr %1, ptr %6, align 8
  store i32 %2, ptr %7, align 4
  store i32 %3, ptr %8, align 4
  call void @llvm.lifetime.start.p0(i64 4, ptr %9) #8
  call void @llvm.lifetime.start.p0(i64 8, ptr %10) #8
  %11 = load i32, ptr %8, align 4
  switch i32 %11, label %37 [
    i32 1, label %12
    i32 2, label %12
    i32 3, label %24
  ]

12:                                               ; preds = %4, %4
  %13 = load ptr, ptr %6, align 8
  %14 = load i32, ptr %7, align 4
  %15 = call zeroext i8 @tvb_get_uint8(ptr noundef %13, i32 noundef %14)
  %16 = zext i8 %15 to i32
  store i32 %16, ptr %9, align 4
  %17 = load i32, ptr %7, align 4
  %18 = add i32 %17, 1
  store i32 %18, ptr %7, align 4
  %19 = load ptr, ptr %5, align 8
  %20 = load ptr, ptr %6, align 8
  %21 = load i32, ptr %7, align 4
  %22 = load i32, ptr %9, align 4
  %23 = call ptr @tvb_format_text(ptr noundef %19, ptr noundef %20, i32 noundef %21, i32 noundef %22)
  store ptr %23, ptr %10, align 8
  br label %38

24:                                               ; preds = %4
  %25 = load ptr, ptr %6, align 8
  %26 = load i32, ptr %7, align 4
  %27 = add i32 %26, 4
  %28 = call zeroext i16 @tvb_get_ntohs(ptr noundef %25, i32 noundef %27)
  %29 = zext i16 %28 to i32
  store i32 %29, ptr %9, align 4
  %30 = load i32, ptr %7, align 4
  %31 = add i32 %30, 6
  store i32 %31, ptr %7, align 4
  %32 = load ptr, ptr %5, align 8
  %33 = load ptr, ptr %6, align 8
  %34 = load i32, ptr %7, align 4
  %35 = load i32, ptr %9, align 4
  %36 = call ptr @tvb_format_text(ptr noundef %32, ptr noundef %33, i32 noundef %34, i32 noundef %35)
  store ptr %36, ptr %10, align 8
  br label %38

37:                                               ; preds = %4
  store ptr @.str.1064, ptr %10, align 8
  br label %38

38:                                               ; preds = %37, %24, %12
  %39 = load ptr, ptr %10, align 8
  call void @llvm.lifetime.end.p0(i64 8, ptr %10) #8
  call void @llvm.lifetime.end.p0(i64 4, ptr %9) #8
  ret ptr %39
}

; Function Attrs: null_pointer_is_valid sspstrong uwtable
define internal i32 @decode_name_label(ptr noundef %0, ptr noundef %1, ptr noundef %2, i32 noundef %3, ptr noundef %4, i1 noundef zeroext %5) #1 {
  %7 = alloca ptr, align 8
  %8 = alloca ptr, align 8
  %9 = alloca ptr, align 8
  %10 = alloca i32, align 4
  %11 = alloca ptr, align 8
  %12 = alloca i8, align 1
  %13 = alloca i32, align 4
  %14 = alloca i32, align 4
  %15 = alloca ptr, align 8
  %16 = alloca i8, align 1
  %17 = alloca ptr, align 8
  store ptr %0, ptr %7, align 8
  store ptr %1, ptr %8, align 8
  store ptr %2, ptr %9, align 8
  store i32 %3, ptr %10, align 4
  store ptr %4, ptr %11, align 8
  %18 = zext i1 %5 to i8
  store i8 %18, ptr %12, align 1
  call void @llvm.lifetime.start.p0(i64 4, ptr %13) #8
  call void @llvm.lifetime.start.p0(i64 4, ptr %14) #8
  call void @llvm.lifetime.start.p0(i64 8, ptr %15) #8
  call void @llvm.lifetime.start.p0(i64 1, ptr %16) #8
  call void @llvm.lifetime.start.p0(i64 8, ptr %17) #8
  store ptr null, ptr %17, align 8
  %19 = load ptr, ptr %9, align 8
  %20 = load i32, ptr %10, align 4
  %21 = call zeroext i8 @tvb_get_uint8(ptr noundef %19, i32 noundef %20)
  store i8 %21, ptr %16, align 1
  %22 = load i8, ptr %16, align 1
  %23 = zext i8 %22 to i32
  %24 = icmp eq i32 %23, 3
  br i1 %24, label %25, label %31

25:                                               ; preds = %6
  store i32 7, ptr %14, align 4
  %26 = load ptr, ptr %9, align 8
  %27 = load i32, ptr %10, align 4
  %28 = add i32 %27, 5
  %29 = call zeroext i16 @tvb_get_ntohs(ptr noundef %26, i32 noundef %28)
  %30 = zext i16 %29 to i32
  store i32 %30, ptr %13, align 4
  br label %37

31:                                               ; preds = %6
  store i32 2, ptr %14, align 4
  %32 = load ptr, ptr %9, align 8
  %33 = load i32, ptr %10, align 4
  %34 = add i32 %33, 1
  %35 = call zeroext i8 @tvb_get_uint8(ptr noundef %32, i32 noundef %34)
  %36 = zext i8 %35 to i32
  store i32 %36, ptr %13, align 4
  br label %37

37:                                               ; preds = %31, %25
  %38 = load ptr, ptr %8, align 8
  %39 = getelementptr inbounds nuw %struct._packet_info, ptr %38, i32 0, i32 51
  %40 = load ptr, ptr %39, align 8
  %41 = load ptr, ptr %9, align 8
  %42 = load i32, ptr %10, align 4
  %43 = add i32 %42, 1
  %44 = load i8, ptr %16, align 1
  %45 = zext i8 %44 to i32
  %46 = call ptr @get_name(ptr noundef %40, ptr noundef %41, i32 noundef %43, i32 noundef %45)
  store ptr %46, ptr %15, align 8
  %47 = load i8, ptr %12, align 1, !range !15, !noundef !16
  %48 = trunc i8 %47 to i1
  br i1 %48, label %49, label %63

49:                                               ; preds = %37
  %50 = load ptr, ptr %8, align 8
  %51 = getelementptr inbounds nuw %struct._packet_info, ptr %50, i32 0, i32 1
  %52 = load ptr, ptr %51, align 8
  %53 = load i32, ptr @Vol, align 4
  %54 = load i32, ptr @Did, align 4
  call void (ptr, i32, ptr, ...) @col_append_fstr(ptr noundef %52, i32 noundef 25, ptr noundef @.str.1062, i32 noundef %53, i32 noundef %54)
  %55 = load i32, ptr %13, align 4
  %56 = icmp ne i32 %55, 0
  br i1 %56, label %57, label %62

57:                                               ; preds = %49
  %58 = load ptr, ptr %8, align 8
  %59 = getelementptr inbounds nuw %struct._packet_info, ptr %58, i32 0, i32 1
  %60 = load ptr, ptr %59, align 8
  %61 = load ptr, ptr %15, align 8
  call void (ptr, i32, ptr, ...) @col_append_fstr(ptr noundef %60, i32 noundef 25, ptr noundef @.str.1063, ptr noundef %61)
  br label %62

62:                                               ; preds = %57, %49
  br label %63

63:                                               ; preds = %62, %37
  %64 = load ptr, ptr %7, align 8
  %65 = icmp ne ptr %64, null
  br i1 %65, label %66, label %118

66:                                               ; preds = %63
  %67 = load ptr, ptr %7, align 8
  %68 = load ptr, ptr %9, align 8
  %69 = load i32, ptr %10, align 4
  %70 = load i32, ptr %13, align 4
  %71 = load i32, ptr %14, align 4
  %72 = add i32 %70, %71
  %73 = load i32, ptr @ett_afp_path_name, align 4
  %74 = load ptr, ptr %11, align 8
  %75 = load ptr, ptr %15, align 8
  %76 = call ptr (ptr, ptr, i32, i32, i32, ptr, ptr, ...) @proto_tree_add_subtree_format(ptr noundef %67, ptr noundef %68, i32 noundef %69, i32 noundef %72, i32 noundef %73, ptr noundef null, ptr noundef %74, ptr noundef %75)
  store ptr %76, ptr %17, align 8
  %77 = load ptr, ptr %17, align 8
  %78 = load i32, ptr @hf_afp_path_type, align 4
  %79 = load ptr, ptr %9, align 8
  %80 = load i32, ptr %10, align 4
  %81 = call ptr @proto_tree_add_item(ptr noundef %77, i32 noundef %78, ptr noundef %79, i32 noundef %80, i32 noundef 1, i32 noundef 0)
  %82 = load i32, ptr %10, align 4
  %83 = add i32 %82, 1
  store i32 %83, ptr %10, align 4
  %84 = load i8, ptr %16, align 1
  %85 = zext i8 %84 to i32
  %86 = icmp eq i32 %85, 3
  br i1 %86, label %87, label %102

87:                                               ; preds = %66
  %88 = load ptr, ptr %17, align 8
  %89 = load i32, ptr @hf_afp_path_unicode_hint, align 4
  %90 = load ptr, ptr %9, align 8
  %91 = load i32, ptr %10, align 4
  %92 = call ptr @proto_tree_add_item(ptr noundef %88, i32 noundef %89, ptr noundef %90, i32 noundef %91, i32 noundef 4, i32 noundef 0)
  %93 = load i32, ptr %10, align 4
  %94 = add i32 %93, 4
  store i32 %94, ptr %10, align 4
  %95 = load ptr, ptr %17, align 8
  %96 = load i32, ptr @hf_afp_path_unicode_len, align 4
  %97 = load ptr, ptr %9, align 8
  %98 = load i32, ptr %10, align 4
  %99 = call ptr @proto_tree_add_item(ptr noundef %95, i32 noundef %96, ptr noundef %97, i32 noundef %98, i32 noundef 2, i32 noundef 0)
  %100 = load i32, ptr %10, align 4
  %101 = add i32 %100, 2
  store i32 %101, ptr %10, align 4
  br label %110

102:                                              ; preds = %66
  %103 = load ptr, ptr %17, align 8
  %104 = load i32, ptr @hf_afp_path_len, align 4
  %105 = load ptr, ptr %9, align 8
  %106 = load i32, ptr %10, align 4
  %107 = call ptr @proto_tree_add_item(ptr noundef %103, i32 noundef %104, ptr noundef %105, i32 noundef %106, i32 noundef 1, i32 noundef 0)
  %108 = load i32, ptr %10, align 4
  %109 = add i32 %108, 1
  store i32 %109, ptr %10, align 4
  br label %110

110:                                              ; preds = %102, %87
  %111 = load ptr, ptr %17, align 8
  %112 = load i32, ptr @hf_afp_path_name, align 4
  %113 = load ptr, ptr %9, align 8
  %114 = load i32, ptr %10, align 4
  %115 = load i32, ptr %13, align 4
  %116 = load ptr, ptr %15, align 8
  %117 = call ptr @proto_tree_add_string(ptr noundef %111, i32 noundef %112, ptr noundef %113, i32 noundef %114, i32 noundef %115, ptr noundef %116)
  br label %122

118:                                              ; preds = %63
  %119 = load i32, ptr %14, align 4
  %120 = load i32, ptr %10, align 4
  %121 = add i32 %120, %119
  store i32 %121, ptr %10, align 4
  br label %122

122:                                              ; preds = %118, %110
  %123 = load i32, ptr %10, align 4
  %124 = load i32, ptr %13, align 4
  %125 = add i32 %123, %124
  call void @llvm.lifetime.end.p0(i64 8, ptr %17) #8
  call void @llvm.lifetime.end.p0(i64 1, ptr %16) #8
  call void @llvm.lifetime.end.p0(i64 8, ptr %15) #8
  call void @llvm.lifetime.end.p0(i64 4, ptr %14) #8
  call void @llvm.lifetime.end.p0(i64 4, ptr %13) #8
  ret i32 %125
}