; Function Attrs: null_pointer_is_valid sspstrong uwtable
define internal fastcc i32 @decode_name_label(ptr noundef %0, ptr noundef readonly captures(none) %1, ptr noundef %2, i32 noundef %3, ptr noundef %4, i1 noundef zeroext %5) unnamed_addr #1 {
  %7 = tail call zeroext i8 @tvb_get_uint8(ptr noundef %2, i32 noundef %3)
  %8 = icmp eq i8 %7, 3
  br i1 %8, label %.split, label %.split52

.split:                                           ; preds = %6
  %9 = add i32 %3, 5
  %10 = tail call zeroext i16 @tvb_get_ntohs(ptr noundef %2, i32 noundef %9)
  %11 = zext i16 %10 to i32
  %12 = getelementptr inbounds nuw i8, ptr %1, i64 408
  %13 = load ptr, ptr %12, align 8
  %14 = add i32 %3, 1
  %15 = tail call zeroext i16 @tvb_get_ntohs(ptr noundef %2, i32 noundef %9)
  %16 = zext i16 %15 to i32
  %17 = add i32 %3, 7
  %18 = tail call ptr @tvb_format_text(ptr noundef %13, ptr noundef %2, i32 noundef %17, i32 noundef %16)
  br label %get_name.exit

.split52:                                         ; preds = %6
  %19 = add i32 %3, 1
  %20 = tail call zeroext i8 @tvb_get_uint8(ptr noundef %2, i32 noundef %19)
  %21 = zext i8 %20 to i32
  %.off = add i8 %7, -1
  %switch = icmp ult i8 %.off, 2
  br i1 %switch, label %.sink.split.i, label %get_name.exit

.sink.split.i:                                    ; preds = %.split52
  %22 = getelementptr inbounds nuw i8, ptr %1, i64 408
  %23 = load ptr, ptr %22, align 8
  %24 = tail call zeroext i8 @tvb_get_uint8(ptr noundef %2, i32 noundef %19)
  %25 = zext i8 %24 to i32
  %26 = add i32 %3, 2
  %27 = tail call ptr @tvb_format_text(ptr noundef %23, ptr noundef %2, i32 noundef %26, i32 noundef %25)
  br label %get_name.exit

get_name.exit:                                    ; preds = %.split52, %.sink.split.i, %.split
  %28 = phi i32 [ %14, %.split ], [ %19, %.split52 ], [ %19, %.sink.split.i ]
  %phi.call = phi ptr [ %18, %.split ], [ @.str.1064, %.split52 ], [ %27, %.sink.split.i ]
  %.050 = phi i32 [ 7, %.split ], [ 2, %.split52 ], [ 2, %.sink.split.i ]
  %.049 = phi i32 [ %11, %.split ], [ %21, %.split52 ], [ %21, %.sink.split.i ]
  br i1 %5, label %29, label %36

29:                                               ; preds = %get_name.exit
  %30 = getelementptr inbounds nuw i8, ptr %1, i64 8
  %31 = load ptr, ptr %30, align 8
  %32 = load i32, ptr @Vol, align 4
  %33 = load i32, ptr @Did, align 4
  tail call void (ptr, i32, ptr, ...) @col_append_fstr(ptr noundef %31, i32 noundef 25, ptr noundef nonnull @.str.1062, i32 noundef %32, i32 noundef %33)
  %.not = icmp eq i32 %.049, 0
  br i1 %.not, label %36, label %34

34:                                               ; preds = %29
  %35 = load ptr, ptr %30, align 8
  tail call void (ptr, i32, ptr, ...) @col_append_fstr(ptr noundef %35, i32 noundef 25, ptr noundef nonnull @.str.1063, ptr noundef %phi.call)
  br label %36

36:                                               ; preds = %29, %34, %get_name.exit
  %.not55 = icmp eq ptr %0, null
  br i1 %.not55, label %56, label %37

37:                                               ; preds = %36
  %38 = add nuw nsw i32 %.049, %.050
  %39 = load i32, ptr @ett_afp_path_name, align 4
  %40 = tail call ptr (ptr, ptr, i32, i32, i32, ptr, ptr, ...) @proto_tree_add_subtree_format(ptr noundef nonnull %0, ptr noundef %2, i32 noundef %3, i32 noundef %38, i32 noundef %39, ptr noundef null, ptr noundef %4, ptr noundef %phi.call)
  %41 = load i32, ptr @hf_afp_path_type, align 4
  %42 = tail call ptr @proto_tree_add_item(ptr noundef %40, i32 noundef %41, ptr noundef %2, i32 noundef %3, i32 noundef 1, i32 noundef 0)
  br i1 %8, label %43, label %49

43:                                               ; preds = %37
  %44 = load i32, ptr @hf_afp_path_unicode_hint, align 4
  %45 = tail call ptr @proto_tree_add_item(ptr noundef %40, i32 noundef %44, ptr noundef %2, i32 noundef %28, i32 noundef 4, i32 noundef 0)
  %46 = add i32 %28, 4
  %47 = load i32, ptr @hf_afp_path_unicode_len, align 4
  %48 = tail call ptr @proto_tree_add_item(ptr noundef %40, i32 noundef %47, ptr noundef %2, i32 noundef %46, i32 noundef 2, i32 noundef 0)
  br label %52

49:                                               ; preds = %37
  %50 = load i32, ptr @hf_afp_path_len, align 4
  %51 = tail call ptr @proto_tree_add_item(ptr noundef %40, i32 noundef %50, ptr noundef %2, i32 noundef %28, i32 noundef 1, i32 noundef 0)
  br label %52

52:                                               ; preds = %49, %43
  %.sink = phi i32 [ 1, %49 ], [ 6, %43 ]
  %53 = add i32 %28, %.sink
  %54 = load i32, ptr @hf_afp_path_name, align 4
  %55 = tail call ptr @proto_tree_add_string(ptr noundef %40, i32 noundef %54, ptr noundef %2, i32 noundef %53, i32 noundef %.049, ptr noundef %phi.call)
  br label %58

56:                                               ; preds = %36
  %57 = add i32 %.050, %3
  br label %58

58:                                               ; preds = %56, %52
  %.1 = phi i32 [ %53, %52 ], [ %57, %56 ]
  %59 = add i32 %.1, %.049
  ret i32 %59
}